; Function Attrs: mustprogress nofree norecurse nosync nounwind willreturn memory(read, inaccessiblemem: none) uwtable
define hidden noundef ptr @_ZN12JVMCIRuntime45get_instance_klass_for_declared_method_holderEP5Klass(ptr noundef readonly %0) local_unnamed_addr #8 align 2 {
  %2 = getelementptr inbounds i8, ptr %0, i64 12
  %3 = load i32, ptr %2, align 4
  %4 = icmp slt i32 %3, 5
  br i1 %4, label %7, label %5

5:                                                ; preds = %1
  %6 = load ptr, ptr @_ZN9vmClasses8_klassesE, align 8
  br label %7

7:                                                ; preds = %1, %5
  %.0 = phi ptr [ %6, %5 ], [ %0, %1 ]
  ret ptr %.0
}